target datalayout = "e-m:e-p270:32:32-p271:32:32-p272:64:64-i64:64-i128:128-f80:128-n8:16:32:64-S128"
target triple = "x86_64-pc-linux-gnu"

@.str.26 = private unnamed_addr constant [25 x i8] c"../openssl/fuzz/ml-kem.c\00", align 1

; Function Attrs: nounwind uwtable
define internal void @mlkem_kex(ptr noundef %0, ptr noundef %1, ptr noundef %2, ptr noundef %3, ptr noundef %4, ptr noundef %5) #0 {
  %7 = alloca ptr, align 8
  %8 = alloca ptr, align 8
  %9 = alloca ptr, align 8
  %10 = alloca ptr, align 8
  %11 = alloca ptr, align 8
  %12 = alloca ptr, align 8
  %13 = alloca ptr, align 8
  %14 = alloca ptr, align 8
  %15 = alloca i64, align 8
  %16 = alloca i64, align 8
  %17 = alloca ptr, align 8
  %18 = alloca ptr, align 8
  store ptr %0, ptr %7, align 8, !tbaa !23
  store ptr %1, ptr %8, align 8, !tbaa !21
  store ptr %2, ptr %9, align 8, !tbaa !15
  store ptr %3, ptr %10, align 8, !tbaa !15
  store ptr %4, ptr %11, align 8, !tbaa !15
  store ptr %5, ptr %12, align 8, !tbaa !15
  call void @llvm.lifetime.start.p0(i64 8, ptr %13) #7
  %19 = load ptr, ptr %9, align 8, !tbaa !15
  store ptr %19, ptr %13, align 8, !tbaa !27
  call void @llvm.lifetime.start.p0(i64 8, ptr %14) #7
  %20 = load ptr, ptr %10, align 8, !tbaa !15
  store ptr %20, ptr %14, align 8, !tbaa !27
  call void @llvm.lifetime.start.p0(i64 8, ptr %15) #7
  call void @llvm.lifetime.start.p0(i64 8, ptr %16) #7
  call void @llvm.lifetime.start.p0(i64 8, ptr %17) #7
  store ptr null, ptr %17, align 8, !tbaa !11
  call void @llvm.lifetime.start.p0(i64 8, ptr %18) #7
  store ptr null, ptr %18, align 8, !tbaa !11
  %21 = load ptr, ptr %13, align 8, !tbaa !27
  %22 = load ptr, ptr %14, align 8, !tbaa !27
  call void @do_derive(ptr noundef %21, ptr noundef %22, ptr noundef %18, ptr noundef %16)
  %23 = load ptr, ptr %14, align 8, !tbaa !27
  %24 = load ptr, ptr %13, align 8, !tbaa !27
  call void @do_derive(ptr noundef %23, ptr noundef %24, ptr noundef %17, ptr noundef %15)
  %25 = load ptr, ptr %17, align 8, !tbaa !11
  call void @CRYPTO_free(ptr noundef %25, ptr noundef @.str.26, i32 noundef 420)
  %26 = load ptr, ptr %18, align 8, !tbaa !11
  call void @CRYPTO_free(ptr noundef %26, ptr noundef @.str.26, i32 noundef 421)
  call void @llvm.lifetime.end.p0(i64 8, ptr %18) #7
  call void @llvm.lifetime.end.p0(i64 8, ptr %17) #7
  call void @llvm.lifetime.end.p0(i64 8, ptr %16) #7
  call void @llvm.lifetime.end.p0(i64 8, ptr %15) #7
  call void @llvm.lifetime.end.p0(i64 8, ptr %14) #7
  call void @llvm.lifetime.end.p0(i64 8, ptr %13) #7
  ret void
}