; Function Attrs: nounwind uwtable
define internal void @mlkem_kex(ptr readnone captures(none) %0, ptr readnone captures(none) %1, ptr noundef %2, ptr noundef %3, ptr readnone captures(none) %4, ptr readnone captures(none) %5) #1 {
  %7 = alloca i64, align 8
  %8 = alloca i64, align 8
  %9 = alloca ptr, align 8
  %10 = alloca ptr, align 8
  call void @llvm.lifetime.start.p0(i64 8, ptr nonnull %7) #6
  call void @llvm.lifetime.start.p0(i64 8, ptr nonnull %8) #6
  call void @llvm.lifetime.start.p0(i64 8, ptr nonnull %9) #6
  call void @llvm.lifetime.start.p0(i64 8, ptr nonnull %10) #6
  call fastcc void @do_derive(ptr noundef %2, ptr noundef %3, ptr noundef %10, ptr noundef %8)
  call fastcc void @do_derive(ptr noundef %3, ptr noundef %2, ptr noundef %9, ptr noundef %7)
  %11 = load ptr, ptr %9, align 8, !tbaa !11
  call void @CRYPTO_free(ptr noundef %11, ptr noundef nonnull @.str.26, i32 noundef 420) #6
  %12 = load ptr, ptr %10, align 8, !tbaa !11
  call void @CRYPTO_free(ptr noundef %12, ptr noundef nonnull @.str.26, i32 noundef 421) #6
  call void @llvm.lifetime.end.p0(i64 8, ptr nonnull %10) #6
  call void @llvm.lifetime.end.p0(i64 8, ptr nonnull %9) #6
  call void @llvm.lifetime.end.p0(i64 8, ptr nonnull %8) #6
  call void @llvm.lifetime.end.p0(i64 8, ptr nonnull %7) #6
  ret void
}